target datalayout = "e-m:e-p270:32:32-p271:32:32-p272:64:64-i64:64-i128:128-f80:128-n8:16:32:64-S128"
target triple = "x86_64-pc-linux-gnu"

%struct.PACKET = type { ptr, i64 }

@smbuf = internal global [256 x i8] zeroinitializer, align 16
@.str.25 = private unnamed_addr constant [29 x i8] c"../openssl/test/packettest.c\00", align 1
@.str.27 = private unnamed_addr constant [23 x i8] c"PACKET_remaining(&pkt)\00", align 1
@.str.28 = private unnamed_addr constant [2 x i8] c"4\00", align 1
@.str.34 = private unnamed_addr constant [38 x i8] c"PACKET_buf_init(&pkt, smbuf, BUF_LEN)\00", align 1
@.str.50 = private unnamed_addr constant [5 x i8] c"0xfe\00", align 1
@.str.53 = private unnamed_addr constant [34 x i8] c"PACKET_forward(&pkt, BUF_LEN - 8)\00", align 1
@.str.69 = private unnamed_addr constant [34 x i8] c"PACKET_get_bytes(&pkt, &bytes, 4)\00", align 1
@.str.70 = private unnamed_addr constant [9 x i8] c"bytes[0]\00", align 1
@.str.71 = private unnamed_addr constant [2 x i8] c"2\00", align 1
@.str.72 = private unnamed_addr constant [9 x i8] c"bytes[1]\00", align 1
@.str.73 = private unnamed_addr constant [9 x i8] c"bytes[2]\00", align 1
@.str.74 = private unnamed_addr constant [2 x i8] c"6\00", align 1
@.str.75 = private unnamed_addr constant [9 x i8] c"bytes[3]\00", align 1
@.str.76 = private unnamed_addr constant [2 x i8] c"8\00", align 1
@.str.77 = private unnamed_addr constant [11 x i8] c"BUF_LEN -4\00", align 1
@.str.78 = private unnamed_addr constant [5 x i8] c"0xf8\00", align 1
@.str.79 = private unnamed_addr constant [5 x i8] c"0xfa\00", align 1
@.str.80 = private unnamed_addr constant [5 x i8] c"0xfc\00", align 1

; Function Attrs: inlinehint nounwind uwtable
define internal void @packet_forward(ptr noundef %0, i64 noundef %1) #4 {
  %3 = alloca ptr, align 8
  %4 = alloca i64, align 8
  store ptr %0, ptr %3, align 8, !tbaa !33
  store i64 %1, ptr %4, align 8, !tbaa !11
  %5 = load i64, ptr %4, align 8, !tbaa !11
  %6 = load ptr, ptr %3, align 8, !tbaa !33
  %7 = getelementptr inbounds nuw %struct.PACKET, ptr %6, i32 0, i32 0
  %8 = load ptr, ptr %7, align 8, !tbaa !29
  %9 = getelementptr inbounds nuw i8, ptr %8, i64 %5
  store ptr %9, ptr %7, align 8, !tbaa !29
  %10 = load i64, ptr %4, align 8, !tbaa !11
  %11 = load ptr, ptr %3, align 8, !tbaa !33
  %12 = getelementptr inbounds nuw %struct.PACKET, ptr %11, i32 0, i32 1
  %13 = load i64, ptr %12, align 8, !tbaa !31
  %14 = sub i64 %13, %10
  store i64 %14, ptr %12, align 8, !tbaa !31
  ret void
}

; Function Attrs: inlinehint nounwind uwtable
define internal i32 @PACKET_peek_bytes(ptr noundef %0, ptr noundef %1, i64 noundef %2) #4 {
  %4 = alloca i32, align 4
  %5 = alloca ptr, align 8
  %6 = alloca ptr, align 8
  %7 = alloca i64, align 8
  store ptr %0, ptr %5, align 8, !tbaa !33
  store ptr %1, ptr %6, align 8, !tbaa !38
  store i64 %2, ptr %7, align 8, !tbaa !11
  %8 = load ptr, ptr %5, align 8, !tbaa !33
  %9 = call i64 @PACKET_remaining(ptr noundef %8)
  %10 = load i64, ptr %7, align 8, !tbaa !11
  %11 = icmp ult i64 %9, %10
  br i1 %11, label %12, label %13

12:                                               ; preds = %3
  store i32 0, ptr %4, align 4
  br label %18

13:                                               ; preds = %3
  %14 = load ptr, ptr %5, align 8, !tbaa !33
  %15 = getelementptr inbounds nuw %struct.PACKET, ptr %14, i32 0, i32 0
  %16 = load ptr, ptr %15, align 8, !tbaa !29
  %17 = load ptr, ptr %6, align 8, !tbaa !38
  store ptr %16, ptr %17, align 8, !tbaa !13
  store i32 1, ptr %4, align 4
  br label %18

18:                                               ; preds = %13, %12
  %19 = load i32, ptr %4, align 4
  ret i32 %19
}

; Function Attrs: inlinehint nounwind uwtable
define internal i32 @PACKET_forward(ptr noundef %0, i64 noundef %1) #4 {
  %3 = alloca i32, align 4
  %4 = alloca ptr, align 8
  %5 = alloca i64, align 8
  store ptr %0, ptr %4, align 8, !tbaa !33
  store i64 %1, ptr %5, align 8, !tbaa !11
  %6 = load ptr, ptr %4, align 8, !tbaa !33
  %7 = call i64 @PACKET_remaining(ptr noundef %6)
  %8 = load i64, ptr %5, align 8, !tbaa !11
  %9 = icmp ult i64 %7, %8
  br i1 %9, label %10, label %11

10:                                               ; preds = %2
  store i32 0, ptr %3, align 4
  br label %14

11:                                               ; preds = %2
  %12 = load ptr, ptr %4, align 8, !tbaa !33
  %13 = load i64, ptr %5, align 8, !tbaa !11
  call void @packet_forward(ptr noundef %12, i64 noundef %13)
  store i32 1, ptr %3, align 4
  br label %14

14:                                               ; preds = %11, %10
  %15 = load i32, ptr %3, align 4
  ret i32 %15
}

; Function Attrs: inlinehint nounwind uwtable
define internal i64 @PACKET_remaining(ptr noundef %0) #4 {
  %2 = alloca ptr, align 8
  store ptr %0, ptr %2, align 8, !tbaa !33
  %3 = load ptr, ptr %2, align 8, !tbaa !33
  %4 = getelementptr inbounds nuw %struct.PACKET, ptr %3, i32 0, i32 1
  %5 = load i64, ptr %4, align 8, !tbaa !31
  ret i64 %5
}

; Function Attrs: inlinehint nounwind uwtable
define internal i32 @PACKET_get_bytes(ptr noundef %0, ptr noundef %1, i64 noundef %2) #4 {
  %4 = alloca i32, align 4
  %5 = alloca ptr, align 8
  %6 = alloca ptr, align 8
  %7 = alloca i64, align 8
  store ptr %0, ptr %5, align 8, !tbaa !33
  store ptr %1, ptr %6, align 8, !tbaa !38
  store i64 %2, ptr %7, align 8, !tbaa !11
  %8 = load ptr, ptr %5, align 8, !tbaa !33
  %9 = load ptr, ptr %6, align 8, !tbaa !38
  %10 = load i64, ptr %7, align 8, !tbaa !11
  %11 = call i32 @PACKET_peek_bytes(ptr noundef %8, ptr noundef %9, i64 noundef %10)
  %12 = icmp ne i32 %11, 0
  br i1 %12, label %14, label %13

13:                                               ; preds = %3
  store i32 0, ptr %4, align 4
  br label %17

14:                                               ; preds = %3
  %15 = load ptr, ptr %5, align 8, !tbaa !33
  %16 = load i64, ptr %7, align 8, !tbaa !11
  call void @packet_forward(ptr noundef %15, i64 noundef %16)
  store i32 1, ptr %4, align 4
  br label %17

17:                                               ; preds = %14, %13
  %18 = load i32, ptr %4, align 4
  ret i32 %18
}

; Function Attrs: inlinehint nounwind uwtable
define internal i32 @PACKET_buf_init(ptr noundef %0, ptr noundef %1, i64 noundef %2) #4 {
  %4 = alloca i32, align 4
  %5 = alloca ptr, align 8
  %6 = alloca ptr, align 8
  %7 = alloca i64, align 8
  store ptr %0, ptr %5, align 8, !tbaa !33
  store ptr %1, ptr %6, align 8, !tbaa !13
  store i64 %2, ptr %7, align 8, !tbaa !11
  %8 = load i64, ptr %7, align 8, !tbaa !11
  %9 = icmp ugt i64 %8, 9223372036854775807
  br i1 %9, label %10, label %11

10:                                               ; preds = %3
  store i32 0, ptr %4, align 4
  br label %18

11:                                               ; preds = %3
  %12 = load ptr, ptr %6, align 8, !tbaa !13
  %13 = load ptr, ptr %5, align 8, !tbaa !33
  %14 = getelementptr inbounds nuw %struct.PACKET, ptr %13, i32 0, i32 0
  store ptr %12, ptr %14, align 8, !tbaa !29
  %15 = load i64, ptr %7, align 8, !tbaa !11
  %16 = load ptr, ptr %5, align 8, !tbaa !33
  %17 = getelementptr inbounds nuw %struct.PACKET, ptr %16, i32 0, i32 1
  store i64 %15, ptr %17, align 8, !tbaa !31
  store i32 1, ptr %4, align 4
  br label %18

18:                                               ; preds = %11, %10
  %19 = load i32, ptr %4, align 4
  ret i32 %19
}

; Function Attrs: nounwind uwtable
define internal i32 @test_PACKET_get_bytes() #0 {
  %1 = alloca i32, align 4
  %2 = alloca ptr, align 8
  %3 = alloca %struct.PACKET, align 8
  %4 = alloca i32, align 4
  call void @llvm.lifetime.start.p0(i64 8, ptr %2) #7
  store ptr null, ptr %2, align 8, !tbaa !13
  call void @llvm.lifetime.start.p0(i64 16, ptr %3) #7
  %5 = call i32 @PACKET_buf_init(ptr noundef %3, ptr noundef @smbuf, i64 noundef 255)
  %6 = icmp ne i32 %5, 0
  %7 = zext i1 %6 to i32
  %8 = call i32 @test_true(ptr noundef @.str.25, i32 noundef 159, ptr noundef @.str.34, i32 noundef %7)
  %9 = icmp ne i32 %8, 0
  br i1 %9, label %10, label %86

10:                                               ; preds = %0
  %11 = call i32 @PACKET_get_bytes(ptr noundef %3, ptr noundef %2, i64 noundef 4)
  %12 = icmp ne i32 %11, 0
  %13 = zext i1 %12 to i32
  %14 = call i32 @test_true(ptr noundef @.str.25, i32 noundef 160, ptr noundef @.str.69, i32 noundef %13)
  %15 = icmp ne i32 %14, 0
  br i1 %15, label %16, label %86

16:                                               ; preds = %10
  %17 = load ptr, ptr %2, align 8, !tbaa !13
  %18 = getelementptr inbounds i8, ptr %17, i64 0
  %19 = load i8, ptr %18, align 1, !tbaa !8
  %20 = call i32 @test_uchar_eq(ptr noundef @.str.25, i32 noundef 161, ptr noundef @.str.70, ptr noundef @.str.71, i8 noundef zeroext %19, i8 noundef zeroext 2)
  %21 = icmp ne i32 %20, 0
  br i1 %21, label %22, label %86

22:                                               ; preds = %16
  %23 = load ptr, ptr %2, align 8, !tbaa !13
  %24 = getelementptr inbounds i8, ptr %23, i64 1
  %25 = load i8, ptr %24, align 1, !tbaa !8
  %26 = call i32 @test_uchar_eq(ptr noundef @.str.25, i32 noundef 162, ptr noundef @.str.72, ptr noundef @.str.28, i8 noundef zeroext %25, i8 noundef zeroext 4)
  %27 = icmp ne i32 %26, 0
  br i1 %27, label %28, label %86

28:                                               ; preds = %22
  %29 = load ptr, ptr %2, align 8, !tbaa !13
  %30 = getelementptr inbounds i8, ptr %29, i64 2
  %31 = load i8, ptr %30, align 1, !tbaa !8
  %32 = call i32 @test_uchar_eq(ptr noundef @.str.25, i32 noundef 163, ptr noundef @.str.73, ptr noundef @.str.74, i8 noundef zeroext %31, i8 noundef zeroext 6)
  %33 = icmp ne i32 %32, 0
  br i1 %33, label %34, label %86

34:                                               ; preds = %28
  %35 = load ptr, ptr %2, align 8, !tbaa !13
  %36 = getelementptr inbounds i8, ptr %35, i64 3
  %37 = load i8, ptr %36, align 1, !tbaa !8
  %38 = call i32 @test_uchar_eq(ptr noundef @.str.25, i32 noundef 164, ptr noundef @.str.75, ptr noundef @.str.76, i8 noundef zeroext %37, i8 noundef zeroext 8)
  %39 = icmp ne i32 %38, 0
  br i1 %39, label %40, label %86

40:                                               ; preds = %34
  %41 = call i64 @PACKET_remaining(ptr noundef %3)
  %42 = call i32 @test_size_t_eq(ptr noundef @.str.25, i32 noundef 165, ptr noundef @.str.27, ptr noundef @.str.77, i64 noundef %41, i64 noundef 251)
  %43 = icmp ne i32 %42, 0
  br i1 %43, label %44, label %86

44:                                               ; preds = %40
  %45 = call i32 @PACKET_forward(ptr noundef %3, i64 noundef 247)
  %46 = icmp ne i32 %45, 0
  %47 = zext i1 %46 to i32
  %48 = call i32 @test_true(ptr noundef @.str.25, i32 noundef 166, ptr noundef @.str.53, i32 noundef %47)
  %49 = icmp ne i32 %48, 0
  br i1 %49, label %50, label %86

50:                                               ; preds = %44
  %51 = call i32 @PACKET_get_bytes(ptr noundef %3, ptr noundef %2, i64 noundef 4)
  %52 = icmp ne i32 %51, 0
  %53 = zext i1 %52 to i32
  %54 = call i32 @test_true(ptr noundef @.str.25, i32 noundef 167, ptr noundef @.str.69, i32 noundef %53)
  %55 = icmp ne i32 %54, 0
  br i1 %55, label %56, label %86

56:                                               ; preds = %50
  %57 = load ptr, ptr %2, align 8, !tbaa !13
  %58 = getelementptr inbounds i8, ptr %57, i64 0
  %59 = load i8, ptr %58, align 1, !tbaa !8
  %60 = call i32 @test_uchar_eq(ptr noundef @.str.25, i32 noundef 168, ptr noundef @.str.70, ptr noundef @.str.78, i8 noundef zeroext %59, i8 noundef zeroext -8)
  %61 = icmp ne i32 %60, 0
  br i1 %61, label %62, label %86

62:                                               ; preds = %56
  %63 = load ptr, ptr %2, align 8, !tbaa !13
  %64 = getelementptr inbounds i8, ptr %63, i64 1
  %65 = load i8, ptr %64, align 1, !tbaa !8
  %66 = call i32 @test_uchar_eq(ptr noundef @.str.25, i32 noundef 169, ptr noundef @.str.72, ptr noundef @.str.79, i8 noundef zeroext %65, i8 noundef zeroext -6)
  %67 = icmp ne i32 %66, 0
  br i1 %67, label %68, label %86

68:                                               ; preds = %62
  %69 = load ptr, ptr %2, align 8, !tbaa !13
  %70 = getelementptr inbounds i8, ptr %69, i64 2
  %71 = load i8, ptr %70, align 1, !tbaa !8
  %72 = call i32 @test_uchar_eq(ptr noundef @.str.25, i32 noundef 170, ptr noundef @.str.73, ptr noundef @.str.80, i8 noundef zeroext %71, i8 noundef zeroext -4)
  %73 = icmp ne i32 %72, 0
  br i1 %73, label %74, label %86

74:                                               ; preds = %68
  %75 = load ptr, ptr %2, align 8, !tbaa !13
  %76 = getelementptr inbounds i8, ptr %75, i64 3
  %77 = load i8, ptr %76, align 1, !tbaa !8
  %78 = call i32 @test_uchar_eq(ptr noundef @.str.25, i32 noundef 171, ptr noundef @.str.75, ptr noundef @.str.50, i8 noundef zeroext %77, i8 noundef zeroext -2)
  %79 = icmp ne i32 %78, 0
  br i1 %79, label %80, label %86

80:                                               ; preds = %74
  %81 = call i64 @PACKET_remaining(ptr noundef %3)
  %82 = icmp ne i64 %81, 0
  %83 = zext i1 %82 to i32
  %84 = call i32 @test_false(ptr noundef @.str.25, i32 noundef 172, ptr noundef @.str.27, i32 noundef %83)
  %85 = icmp ne i32 %84, 0
  br i1 %85, label %87, label %86

86:                                               ; preds = %80, %74, %68, %62, %56, %50, %44, %40, %34, %28, %22, %16, %10, %0
  store i32 0, ptr %1, align 4
  store i32 1, ptr %4, align 4
  br label %88

87:                                               ; preds = %80
  store i32 1, ptr %1, align 4
  store i32 1, ptr %4, align 4
  br label %88

88:                                               ; preds = %87, %86
  call void @llvm.lifetime.end.p0(i64 16, ptr %3) #7
  call void @llvm.lifetime.end.p0(i64 8, ptr %2) #7
  %89 = load i32, ptr %1, align 4
  ret i32 %89
}