; Function Attrs: nounwind uwtable
define internal range(i32 0, 2) i32 @test_PACKET_get_bytes() #0 {
  %1 = tail call i32 @test_true(ptr noundef nonnull @.str.25, i32 noundef 159, ptr noundef nonnull @.str.34, i32 noundef 1) #6
  %.not = icmp eq i32 %1, 0
  br i1 %.not, label %33, label %PACKET_get_bytes.exit

PACKET_get_bytes.exit:                            ; preds = %0
  %2 = tail call i32 @test_true(ptr noundef nonnull @.str.25, i32 noundef 160, ptr noundef nonnull @.str.69, i32 noundef 1) #6
  %.not1 = icmp eq i32 %2, 0
  br i1 %.not1, label %33, label %3

3:                                                ; preds = %PACKET_get_bytes.exit
  %4 = load i8, ptr @smbuf, align 16, !tbaa !4
  %5 = tail call i32 @test_uchar_eq(ptr noundef nonnull @.str.25, i32 noundef 161, ptr noundef nonnull @.str.70, ptr noundef nonnull @.str.71, i8 noundef zeroext %4, i8 noundef zeroext 2) #6
  %.not2 = icmp eq i32 %5, 0
  br i1 %.not2, label %33, label %6

6:                                                ; preds = %3
  %7 = load i8, ptr getelementptr inbounds nuw (i8, ptr @smbuf, i64 1), align 1, !tbaa !4
  %8 = tail call i32 @test_uchar_eq(ptr noundef nonnull @.str.25, i32 noundef 162, ptr noundef nonnull @.str.72, ptr noundef nonnull @.str.28, i8 noundef zeroext %7, i8 noundef zeroext 4) #6
  %.not3 = icmp eq i32 %8, 0
  br i1 %.not3, label %33, label %9

9:                                                ; preds = %6
  %10 = load i8, ptr getelementptr inbounds nuw (i8, ptr @smbuf, i64 2), align 2, !tbaa !4
  %11 = tail call i32 @test_uchar_eq(ptr noundef nonnull @.str.25, i32 noundef 163, ptr noundef nonnull @.str.73, ptr noundef nonnull @.str.74, i8 noundef zeroext %10, i8 noundef zeroext 6) #6
  %.not4 = icmp eq i32 %11, 0
  br i1 %.not4, label %33, label %12

12:                                               ; preds = %9
  %13 = load i8, ptr getelementptr inbounds nuw (i8, ptr @smbuf, i64 3), align 1, !tbaa !4
  %14 = tail call i32 @test_uchar_eq(ptr noundef nonnull @.str.25, i32 noundef 164, ptr noundef nonnull @.str.75, ptr noundef nonnull @.str.76, i8 noundef zeroext %13, i8 noundef zeroext 8) #6
  %.not5 = icmp eq i32 %14, 0
  br i1 %.not5, label %33, label %15

15:                                               ; preds = %12
  %16 = tail call i32 @test_size_t_eq(ptr noundef nonnull @.str.25, i32 noundef 165, ptr noundef nonnull @.str.27, ptr noundef nonnull @.str.77, i64 noundef 251, i64 noundef 251) #6
  %.not6 = icmp eq i32 %16, 0
  br i1 %.not6, label %33, label %PACKET_forward.exit

PACKET_forward.exit:                              ; preds = %15
  %17 = tail call i32 @test_true(ptr noundef nonnull @.str.25, i32 noundef 166, ptr noundef nonnull @.str.53, i32 noundef 1) #6
  %.not7 = icmp eq i32 %17, 0
  br i1 %.not7, label %33, label %PACKET_get_bytes.exit18

PACKET_get_bytes.exit18:                          ; preds = %PACKET_forward.exit
  %18 = tail call i32 @test_true(ptr noundef nonnull @.str.25, i32 noundef 167, ptr noundef nonnull @.str.69, i32 noundef 1) #6
  %.not8 = icmp eq i32 %18, 0
  br i1 %.not8, label %33, label %19

19:                                               ; preds = %PACKET_get_bytes.exit18
  %20 = load i8, ptr getelementptr inbounds nuw (i8, ptr @smbuf, i64 251), align 1, !tbaa !4
  %21 = tail call i32 @test_uchar_eq(ptr noundef nonnull @.str.25, i32 noundef 168, ptr noundef nonnull @.str.70, ptr noundef nonnull @.str.78, i8 noundef zeroext %20, i8 noundef zeroext -8) #6
  %.not9 = icmp eq i32 %21, 0
  br i1 %.not9, label %33, label %22

22:                                               ; preds = %19
  %23 = load i8, ptr getelementptr inbounds nuw (i8, ptr @smbuf, i64 252), align 4, !tbaa !4
  %24 = tail call i32 @test_uchar_eq(ptr noundef nonnull @.str.25, i32 noundef 169, ptr noundef nonnull @.str.72, ptr noundef nonnull @.str.79, i8 noundef zeroext %23, i8 noundef zeroext -6) #6
  %.not10 = icmp eq i32 %24, 0
  br i1 %.not10, label %33, label %25

25:                                               ; preds = %22
  %26 = load i8, ptr getelementptr inbounds nuw (i8, ptr @smbuf, i64 253), align 1, !tbaa !4
  %27 = tail call i32 @test_uchar_eq(ptr noundef nonnull @.str.25, i32 noundef 170, ptr noundef nonnull @.str.73, ptr noundef nonnull @.str.80, i8 noundef zeroext %26, i8 noundef zeroext -4) #6
  %.not11 = icmp eq i32 %27, 0
  br i1 %.not11, label %33, label %28

28:                                               ; preds = %25
  %29 = load i8, ptr getelementptr inbounds nuw (i8, ptr @smbuf, i64 254), align 2, !tbaa !4
  %30 = tail call i32 @test_uchar_eq(ptr noundef nonnull @.str.25, i32 noundef 171, ptr noundef nonnull @.str.75, ptr noundef nonnull @.str.50, i8 noundef zeroext %29, i8 noundef zeroext -2) #6
  %.not12 = icmp eq i32 %30, 0
  br i1 %.not12, label %33, label %31

31:                                               ; preds = %28
  %32 = tail call i32 @test_false(ptr noundef nonnull @.str.25, i32 noundef 172, ptr noundef nonnull @.str.27, i32 noundef 0) #6
  %.not13 = icmp ne i32 %32, 0
  %spec.select = zext i1 %.not13 to i32
  br label %33

33:                                               ; preds = %31, %0, %PACKET_get_bytes.exit, %3, %6, %9, %12, %15, %PACKET_forward.exit, %PACKET_get_bytes.exit18, %19, %22, %25, %28
  %.0 = phi i32 [ 0, %28 ], [ 0, %25 ], [ 0, %22 ], [ 0, %19 ], [ 0, %PACKET_get_bytes.exit18 ], [ 0, %PACKET_forward.exit ], [ 0, %15 ], [ 0, %12 ], [ 0, %9 ], [ 0, %6 ], [ 0, %3 ], [ 0, %PACKET_get_bytes.exit ], [ 0, %0 ], [ %spec.select, %31 ]
  ret i32 %.0
}